; Function Attrs: nounwind uwtable
define noalias nonnull ptr @l_Lean_Meta_Attribute_Recursor_getMajorPos___lambda__2(ptr noundef %0, ptr noundef readnone captures(none) %1, ptr noundef readnone captures(none) %2, ptr noundef readnone captures(none) %3, ptr noundef %4) local_unnamed_addr #0 {
  %6 = ptrtoint ptr %0 to i64
  %7 = and i64 %6, 1
  %.not = icmp eq i64 %7, 0
  br i1 %.not, label %.critedge.i, label %8, !prof !12

8:                                                ; preds = %5
  %9 = icmp ult ptr %0, inttoptr (i64 2 to ptr)
  br i1 %9, label %lean_nat_sub.exit, label %10

10:                                               ; preds = %8
  %11 = add i64 %6, -2
  %12 = inttoptr i64 %11 to ptr
  br label %lean_nat_sub.exit

.critedge.i:                                      ; preds = %5
  %13 = tail call ptr @lean_nat_big_sub(ptr noundef %0, ptr noundef nonnull inttoptr (i64 3 to ptr)) #6
  br label %lean_nat_sub.exit

lean_nat_sub.exit:                                ; preds = %8, %10, %.critedge.i
  %.1.i = phi ptr [ %13, %.critedge.i ], [ %12, %10 ], [ inttoptr (i64 1 to ptr), %8 ]
  tail call void @lean_inc_heartbeat() #6
  %14 = tail call noalias ptr @mi_malloc_small(i64 noundef 24) #6
  %15 = icmp eq ptr %14, null
  br i1 %15, label %16, label %lean_alloc_ctor.exit

16:                                               ; preds = %lean_nat_sub.exit
  tail call void @lean_internal_panic_out_of_memory() #7
  unreachable

lean_alloc_ctor.exit:                             ; preds = %lean_nat_sub.exit
  %17 = getelementptr inbounds nuw i8, ptr %14, i64 4
  store i32 1, ptr %14, align 4, !tbaa !8
  store i32 131096, ptr %17, align 4
  %18 = getelementptr inbounds nuw i8, ptr %14, i64 8
  store ptr %.1.i, ptr %18, align 8, !tbaa !4
  %19 = getelementptr inbounds nuw i8, ptr %14, i64 16
  store ptr %4, ptr %19, align 8, !tbaa !4
  ret ptr %14
}